(dp0
S'Stannis'
p1
(lp2
(S'Robert'
p3
I13
tp4
a(S'Renly'
p5
I12
tp6
asS'Renly'
p7
(lp8
(S'Stannis'
p9
I15
tp10
a(S'Robert'
p11
I14
tp12
asS'Ned'
p13
(lp14
(S'Catelyn'
p15
I15
tp16
a(S'Sansa'
p17
I10
tp18
asS'Robb'
p19
(lp20
(S'Ned'
p21
I12
tp22
a(S'Catelyn'
p23
I10
tp24
asS'Loras'
p25
(lp26
(S'Margaery'
p27
I15
tp28
a(S'Sansa'
p29
I6
tp30
asS'Balon'
p31
(lp32
(S'Theon'
p33
I15
tp34
a(S'Victarion'
p35
I11
tp36
asS'Bran'
p37
(lp38
(S'Hodor'
p39
I9
tp40
a(S'Robb'
p41
I8
tp42
asS'Theon'
p43
(lp44
(S'Balon'
p45
I13
tp46
a(S'Robb'
p47
I9
tp48
asS'Tyrion'
p49
(lp50
(S'Jaime'
p51
I12
tp52
a(S'Cersei'
p53
I7
tp54
asS'Joffrey'
p55
(lp56
(S'Cersei'
p57
I14
tp58
a(S'Sansa'
p59
I7
tp60
asS'Margaery'
p61
(lp62
(S'Loras'
p63
I13
tp64
a(S'Tommen'
p65
I12
tp66
asS'Robert'
p67
(lp68
(S'Cersei'
p69
I12
tp70
a(S'Ned'
p71
I7
tp72
asS'Jon'
p73
(lp74
(S'Ned'
p75
I11
tp76
a(S'Sansa'
p77
I10
tp78
asS'Petyr'
p79
(lp80
(S'Sansa'
p81
I14
tp82
a(S'Lysa'
p83
I12
tp84
asS'Edmure'
p85
(lp86
(S'Catelyn'
p87
I13
tp88
a(S'Lysa'
p89
I7
tp90
asS'Barristan'
p91
(lp92
(S'Robert'
p93
I13
tp94
a(S'Joffrey'
p95
I9
tp96
asS'Pycelle'
p97
(lp98
(S'Cersei'
p99
I12
tp100
a(S'Joffrey'
p101
I5
tp102
asS'Lysa'
p103
(lp104
(S'Catelyn'
p105
I14
tp106
a(S'Petyr'
p107
I11
tp108
asS'Varys'
p109
(lp110
(S'Tyrion'
p111
I13
tp112
a(S'Petyr'
p113
I8
tp114
asS'Jaime'
p115
(lp116
(S'Cersei'
p117
I15
tp118
a(S'Tyrion'
p119
I9
tp120
asS'Arya'
p121
(lp122
(S'Sansa'
p123
I12
tp124
a(S'Catelyn'
p125
I8
tp126
asS'Myrcella'
p127
(lp128
(S'Cersei'
p129
I11
tp130
a(S'Tommen'
p131
I11
tp132
asS'Hoster'
p133
(lp134
(S'Catelyn'
p135
I14
tp136
a(S'Edmure'
p137
I10
tp138
asS'Sansa'
p139
(lp140
(S'Ned'
p141
I12
tp142
a(S'Catelyn'
p143
I11
tp144
asS'Tywin'
p145
(lp146
(S'Cersei'
p147
I13
tp148
a(S'Jaime'
p149
I10
tp150
asS'Tommen'
p151
(lp152
(S'Cersei'
p153
I15
tp154
a(S'Margaery'
p155
I4
tp156
asS'Cersei'
p157
(lp158
(S'Jaime'
p159
I15
tp160
a(S'Tommen'
p161
I8
tp162
asS'Roose'
p163
(lp164
(S'Robb'
p165
I13
tp166
a(S'Tywin'
p167
I6
tp168
asS'Catelyn'
p169
(lp170
(S'Ned'
p171
I14
tp172
a(S'Robb'
p173
I9
tp174
asS'Hound'
p175
(lp176
(S'Arya'
p177
I13
tp178
a(S'Joffrey'
p179
I11
tp180
as.