(dp0
S''
p1
I5969536
sS'Kingsley_Shacklebolt'
p2
I15
sS'Bill'
p3
I304
sS'scales'
p4
I23
sS'Pansy_Parkinson'
p5
I34
sS'Forbidden_Forest'
p6
I44
sS'Harry'
p7
I18677
sS'Grimmauld_Place'
p8
I53
sS'Wingardium'
p9
I6
sS'hippogriff'
p10
I70
sS'Amelia_Bones'
p11
I7
sS'veela'
p12
I38
sS'Cho_Chang'
p13
I21
sS'Colin_Creevey'
p14
I18
sS'::'
p15
I0
sS'Hufflepuff'
p16
I148
sS'Professor_Flitwick'
p17
I89
sS'Ginny'
p18
I770
sS'parchment'
p19
I257
sS'library'
p20
I114
sS'Professor_McGonagall'
p21
I640
sS'Fleur_Delacour'
p22
I30
sS'bathroom'
p23
I109
sS'Albus_Dumbledore'
p24
I76
sS'Cedric_Diggory'
p25
I35
sS'bowtruckle'
p26
I19
sS'Ernie_Macmillan'
p27
I27
sS'Shrieking_Shack'
p28
I14
sS'Lumos'
p29
I21
sS'hospital'
p30
I128
sS'Viktor_Krum'
p31
I39
sS'Expelliarmus'
p32
I26
sS"Dumbledore's_office"
p33
I23
sS'Hogwarts'
p34
I858
sS'Bellatrix_Lestrange'
p35
I23
sS'Neville_Longbottom'
p36
I31
sS'Ravenclaw_Tower'
p37
I7
sS'Snitch'
p38
I175
sS'Dolores_Umbridge'
p39
I20
sS'Draco_Malfoy'
p40
I103
sS'corridor'
p41
I414
sS'Imperius'
p42
I49
sS'Fred'
p43
I911
sS'Rufus_Scrimgeour'
p44
I16
sS'Mr_Crouch'
p45
I165
sS'Alastor_Moody'
p46
I7
sS'Gryffindor_Tower'
p47
I78
sS'charms'
p48
I24
sS'Lucius_Malfoy'
p49
I81
sS'fire'
p50
I582
sS'Cornelius_Fudge'
p51
I46
sS'Hermione'
p52
I5351
sS'Sectumsempra'
p53
I7
sS'Gryffindor'
p54
I677
sS'North_Tower'
p55
I10
sS'Alohomora'
p56
I9
sS'Quaffle'
p57
I87
sS'unicorn'
p58
I56
sS'Marcus_Flint'
p59
I9
sS'Professor_Trelawney'
p60
I216
sS'Cruciatus'
p61
I24
sS'Astronomy_Tower'
p62
I12
sS'classroom'
p63
I129
sS'Avada_Kedavra'
p64
I13
sS'Ron'
p65
I6373
sS'Ronald_Weasley'
p66
I11
sS'Hermione_Granger'
p67
I41
sS'Professor_Sprout'
p68
I72
sS'werewolf'
p69
I76
sS'Luna'
p70
I342
sS'Professor_Tofty'
p71
I11
sS'Phineas_Nigellus'
p72
I61
sS"Godric's_Hollow"
p73
I54
sS'George_Weasley'
p74
I34
sS'Luna_Lovegood'
p75
I21
sS'Draco'
p76
I237
sS'thestral'
p77
I53
sS'Dedalus_Diggle'
p78
I8
s.