(dp0
S''
p1
I5969542
sS'Magorian'
p2
I18
sS'Fang'
p3
I112
sS'Norris'
p4
I59
sS'Pansy_Parkinson'
p5
I0
sS'Dolores'
p6
I41
sS"Godric's_Hollow"
p7
I0
sS'Cho_Chang'
p8
I0
sS'::'
p9
I0
sS'earth'
p10
I139
sS'chair'
p11
I432
sS'owl'
p12
I1714
sS'parchment'
p13
I257
sS'Ravenclaw'
p14
I173
sS'broomstick'
p15
I138
sS'Millicent'
p16
I17
sS'Angelina'
p17
I122
sS'Cedric_Diggory'
p18
I0
sS'Theodore'
p19
I1
sS'stairs'
p20
I441
sS'McGonagall'
p21
I734
sS'cloak'
p22
I312
sS'Fred'
p23
I911
sS'Draco_Malfoy'
p24
I0
sS'Hogsmeade'
p25
I150
sS'Marietta'
p26
I39
sS'Professor_Trelawney'
p27
I0
sS'Snitch'
p28
I175
sS'Keeper'
p29
I75
sS'Snape'
p30
I1822
sS'Hermes'
p31
I5
sS'Newt'
p32
I4
sS'Tom'
p33
I135
sS'Ronan'
p34
I23
sS'Rufus_Scrimgeour'
p35
I0
sS'James'
p36
I185
sS'Michael'
p37
I26
sS'Pansy'
p38
I60
sS"Dumbledore's_office"
p39
I0
sS'Alohomora'
p40
I9
sS'ambition'
p41
I24
sS'Dolores_Umbridge'
p42
I0
sS'bravery'
p43
I12
sS'Riddle'
p44
I310
sS'Hermione_Granger'
p45
I0
sS'Potter'
p46
I1674
sS'Pig'
p47
I63
sS'Penelope'
p48
I10
sS'paper'
p49
I244
sS'Demelza'
p50
I16
sS'Gryffindor_Tower'
p51
I0
sS'Impervius'
p52
I6
sS'Draco'
p53
I237
sS'George'
p54
I777
sS'Rubeus'
p55
I11
sS'Durmstrang'
p56
I66
sS'intelligence'
p57
I7
sS'Beater'
p58
I40
sS'Wingardium'
p59
I6
sS'library'
p60
I114
sS'Grimmauld_Place'
p61
I0
sS'Seeker'
p62
I67
sS'air'
p63
I2937
sS'quill'
p64
I164
sS'Barty'
p65
I52
sS'spider'
p66
I136
sS'Hufflepuff'
p67
I148
sS'Horace'
p68
I26
sS'phoenix'
p69
I59
sS'Viktor'
p70
I60
sS'Lumos'
p71
I21
sS'Norbert'
p72
I37
sS'Luna'
p73
I342
sS'Viktor_Krum'
p74
I0
sS'Filch'
p75
I280
sS'Nagini'
p76
I30
sS'Terry'
p77
I13
sS'North_Tower'
p78
I0
sS'Raven'
p79
I175
sS'Imperius'
p80
I49
sS'bird'
p81
I88
sS'Neville'
p82
I775
sS'Mr_Crouch'
p83
I0
sS'Regulus'
p84
I53
sS'Susan'
p85
I10
sS'Cornelius_Fudge'
p86
I0
sS'Bill'
p87
I304
sS'bathroom'
p88
I109
sS'Lucius'
p89
I143
sS'water'
p90
I361
sS'Hokey'
p91
I19
sS'Arthur'
p92
I150
sS'witch'
p93
I455
sS'Aragog'
p94
I49
sS'Chang'
p95
I32
sS'Marcus_Flint'
p96
I0
sS'Padma'
p97
I22
sS'Astronomy_Tower'
p98
I0
sS'Avada_Kedavra'
p99
I0
sS'Bludger'
p100
I119
sS'Hagrid'
p101
I2038
sS'Ron'
p102
I6373
sS'Ronald_Weasley'
p103
I0
sS'Professor_Sprout'
p104
I0
sS'Fluffy'
p105
I27
sS'Remus'
p106
I59
sS'Bane'
p107
I29
sS'Scabbers'
p108
I131
sS'Professor_Tofty'
p109
I0
sS'Slytherin'
p110
I473
sS'Cornelius'
p111
I78
sS'Graham'
p112
I1
sS'Hermione'
p113
I5351
sS'Pomfrey'
p114
I156
sS'Kingsley_Shacklebolt'
p115
I0
sS'Parvati'
p116
I130
sS'scales'
p117
I23
sS'troll'
p118
I210
sS'Crookshanks'
p119
I161
sS'cauldron'
p120
I134
sS'patience'
p121
I18
sS'wit'
p122
I7686
sS'Cormac'
p123
I13
sS'Amelia_Bones'
p124
I0
sS'Professor_Flitwick'
p125
I0
sS'Lily'
p126
I123
sS'Sirius'
p127
I1124
sS'Rita'
p128
I158
sS'Fawkes'
p129
I64
sS'Minerva'
p130
I44
sS'horse'
p131
I97
sS'Cho'
p132
I281
sS'Crouch'
p133
I335
sS'wand'
p134
I1872
sS'bowtruckle'
p135
I19
sS'Ernie_Macmillan'
p136
I0
sS'hospital'
p137
I128
sS'Firenze'
p138
I73
sS'Expelliarmus'
p139
I26
sS'Anthony'
p140
I8
sS'Hogwarts'
p141
I858
sS'Neville_Longbottom'
p142
I0
sS'Ravenclaw_Tower'
p143
I0
sS'Cedric'
p144
I316
sS'Cruciatus'
p145
I24
sS'Bogrod'
p146
I15
sS'Nymphadora'
p147
I12
sS'wizard'
p148
I943
sS'Justin'
p149
I48
sS'fire'
p150
I582
sS'Errol'
p151
I26
sS'Narcissa'
p152
I76
sS'Dumbledore'
p153
I3358
sS'Trevor'
p154
I18
sS'wisdom'
p155
I8
sS'Roger'
p156
I20
sS'Quaffle'
p157
I87
sS'Harry'
p158
I18677
sS'Vincent'
p159
I3
sS'Fleur'
p160
I246
sS'Seamus'
p161
I180
sS'Pigwidgeon'
p162
I51
sS'cunning'
p163
I11
sS'anxiety'
p164
I14
sS'Trelawney'
p165
I250
sS'Gornuk'
p166
I8
sS'Igor'
p167
I7
sS'cat'
p168
I713
sS'Colin'
p169
I72
sS'Phineas_Nigellus'
p170
I0
sS'George_Weasley'
p171
I0
sS'Luna_Lovegood'
p172
I0
sS'Dedalus_Diggle'
p173
I0
sS'Lovegood'
p174
I73
sS'Oliver'
p175
I38
sS'Ernie'
p176
I100
sS'Phineas'
p177
I83
sS'Forbidden_Forest'
p178
I0
sS'Severus'
p179
I147
sS'hippogriff'
p180
I70
sS'Lavender'
p181
I136
sS'veela'
p182
I38
sS'rat'
p183
I2023
sS'Colin_Creevey'
p184
I0
sS'ink'
p185
I3192
sS'Chaser'
p186
I51
sS'Fudge'
p187
I469
sS'Azkaban'
p188
I178
sS'Professor_McGonagall'
p189
I0
sS'Lucius_Malfoy'
p190
I0
sS'Gryffindor'
p191
I677
sS'Albus_Dumbledore'
p192
I0
sS'daring'
p193
I31
sS'Griphook'
p194
I139
sS'Shrieking_Shack'
p195
I0
sS'Ginny'
p196
I770
sS'Alicia'
p197
I53
sS'Molly'
p198
I83
sS'Blaise'
p199
I6
sS'Fleur_Delacour'
p200
I0
sS'Bellatrix_Lestrange'
p201
I0
sS'Albus'
p202
I181
sS'corridor'
p203
I414
sS'Crabbe'
p204
I233
sS'Marcus'
p205
I12
sS'Alastor_Moody'
p206
I0
sS'bottle'
p207
I206
sS'charms'
p208
I24
sS'Sectumsempra'
p209
I7
sS'loyalty'
p210
I14
sS'Peeves'
p211
I159
sS'Protego'
p212
I13
sS'unicorn'
p213
I56
sS'wind'
p214
I804
sS'Gregory'
p215
I6
sS'Flitwick'
p216
I137
sS'Lee'
p217
I97
sS'classroom'
p218
I129
sS'Bellatrix'
p219
I199
sS'Zacharias'
p220
I35
sS'werewolf'
p221
I76
sS'Hedwig'
p222
I207
sS'dog'
p223
I175
sS'dragon'
p224
I240
sS'Hannah'
p225
I26
sS'courage'
p226
I48
sS'Dobby'
p227
I466
sS'Buckbeak'
p228
I128
sS'Kreacher'
p229
I310
sS'Grawp'
p230
I74
sS'Myrtle'
p231
I117
sS'thestral'
p232
I53
sS'Ollivander'
p233
I118
s.