(dp0
S''
p1
I6845087
sS'Old_Tongue'
p2
I17
sS'Theon'
p3
I537
sS'Jade_Sea'
p4
I8
sS'Mander'
p5
I89
sS'Stark'
p6
I1139
sS'Maester_Cressen'
p7
I29
sS'::'
p8
I0
sS'Moat_Cailin'
p9
I50
sS'White_Harbor'
p10
I55
sS'Karhold'
p11
I15
sS'fight'
p12
I701
sS'Drogon'
p13
I52
sS'High_Valyrian'
p14
I13
sS'Oldtown'
p15
I158
sS'Dreadfort'
p16
I51
sS'Common_Tongue'
p17
I53
sS'House_Stark'
p18
I41
sS'Ned'
p19
I950
sS'narrow_sea'
p20
I75
sS'House_Lannister'
p21
I55
sS'sun'
p22
I607
sS'jade_Sea'
p23
I7
sS'Trident'
p24
I184
sS'Many_Faced_God'
p25
I16
sS'Braavos'
p26
I162
sS'Maester_Pylos'
p27
I23
sS'House_Targaryen'
p28
I25
sS'walk'
p29
I590
sS'wood'
p30
I1490
sS'Lannisport'
p31
I57
sS'sword'
p32
I2121
sS'Rhoyne'
p33
I7
sS'Grand_Maester_Pycelle'
p34
I115
sS'Bite'
p35
I57
sS'Loras'
p36
I249
sS'House_Baratheon'
p37
I15
sS'Harrenhal'
p38
I279
sS'Gulltown'
p39
I25
sS'Maester_Colemon'
p40
I33
sS'Summer_Tongue'
p41
I7
sS'food'
p42
I268
sS'House_Arryn'
p43
I13
sS'Tyrion'
p44
I1997
sS'House_Tully'
p45
I16
sS'Westeros'
p46
I144
sS'Maester_Luwin'
p47
I214
sS'Deepwood_Motte'
p48
I32
sS'Maester_Aemon'
p49
I185
sS'Winterfell'
p50
I708
sS"R'hllor"
p51
I38
sS'salt_sea'
p52
I14
sS'Blackwater_Bay'
p53
I15
sS'Samwell'
p54
I86
sS'Balerion'
p55
I32
sS'Viserion'
p56
I24
sS'Shipbreaker_Bay'
p57
I6
sS'Roose'
p58
I94
sS'Slaver_Bay'
p59
I8
sS'Drowned_God'
p60
I58
sS'House_Florent'
p61
I11
sS'Casterly_Rock'
p62
I184
sS'House_Frey'
p63
I13
sS'Jon'
p64
I2232
sS'Mya'
p65
I78
sS'Myrcella'
p66
I170
sS'Rhaegal'
p67
I21
sS'dream'
p68
I680
sS'Storm_God'
p69
I14
sS'King_Landing'
p70
I323
s.