(dp0
S''
p1
I6845091
sS'Karstark'
p2
I98
sS'Balon'
p3
I252
sS'Greyjoy'
p4
I240
sS'Florent'
p5
I66
sS'::'
p6
I0
sS'Baratheon'
p7
I239
sS'Dorne'
p8
I125
sS'direwolve'
p9
I57
sS'Trident'
p10
I184
sS'Frey'
p11
I456
sS'wood'
p12
I1490
sS'Tyrion'
p13
I1997
sS'Margaery'
p14
I295
sS'Tyros'
p15
I75
sS'Ramsay'
p16
I10
sS'Harrenhal'
p17
I279
sS'Craster'
p18
I182
sS'Lancel'
p19
I143
sS'Kevan'
p20
I168
sS'food'
p21
I268
sS'Varys'
p22
I384
sS'Bay'
p23
I52
sS'Walgrave'
p24
I20
sS'Sam'
p25
I1013
sS'Lys'
p26
I441
sS'Tywin'
p27
I613
sS'Myr'
p28
I374
sS'Damphair'
p29
I59
sS'Catelyn'
p30
I1099
sS'Mormont'
p31
I414
sS'Mya'
p32
I78
sS'Littlefinger'
p33
I319
sS'Ned'
p34
I950
sS'Mander'
p35
I89
sS'lion'
p36
I638
sS'Marwyn'
p37
I24
sS'Robb'
p38
I1040
sS'Jon'
p39
I2232
sS'Shaggydog'
p40
I36
sS'Obara'
p41
I29
sS'Norvos'
p42
I22
sS'sun'
p43
I607
sS'Braavos'
p44
I162
sS'Tarly'
p45
I191
sS'Umber'
p46
I55
sS'Loras'
p47
I249
sS'Ebrose'
p48
I7
sS'Bronn'
p49
I289
sS'Winterfell'
p50
I708
sS'Rhaegar'
p51
I168
sS'Sansa'
p52
I1349
sS'Cersei'
p53
I1059
sS'Doran'
p54
I88
sS'Targaryen'
p55
I186
sS'Maron'
p56
I9
sS'Robert'
p57
I985
sS'Stark'
p58
I1139
sS'Rodrik'
p59
I258
sS'Euron'
p60
I101
sS'Drogon'
p61
I52
sS'Westeros'
p62
I144
sS'Jorah'
p63
I368
sS'fight'
p64
I701
sS'Roose'
p65
I94
sS'Balerion'
p66
I32
sS'Lannisport'
p67
I57
sS'Asha'
p68
I162
sS'Tyene'
p69
I31
sS'Pentos'
p70
I65
sS'Bolton'
p71
I250
sS'Bran'
p72
I1361
sS'Viserion'
p73
I24
sS'Tyrell'
p74
I394
sS'Elia'
p75
I59
sS'Oberyn'
p76
I123
sS'Oldtown'
p77
I158
sS'Pyke'
p78
I137
sS'Hodor'
p79
I350
sS'raven'
p80
I464
sS'Jaime'
p81
I1425
sS'Luwin'
p82
I258
sS'Theon'
p83
I537
sS'Daenerys'
p84
I78
sS'Volantis'
p85
I16
sS'Podrick'
p86
I140
sS'Samwell'
p87
I86
sS'Highgarden'
p88
I166
sS'read'
p89
I1105
sS'Joffrey'
p90
I802
sS'sword'
p91
I2121
sS'Rhoyne'
p92
I7
sS'Rickon'
p93
I180
sS'Ghost'
p94
I235
sS'Gulltown'
p95
I25
sS'Gendry'
p96
I243
sS'Arys'
p97
I92
sS'Arya'
p98
I1500
sS'Viserys'
p99
I175
sS'Myrcella'
p100
I170
sS'Martell'
p101
I86
sS'Nymeria'
p102
I54
sS'Drogo'
p103
I324
sS'Rhaegal'
p104
I21
sS'Tommen'
p105
I310
sS'dragon'
p106
I739
sS'Lannister'
p107
I1148
sS'godswood'
p108
I137
sS'Aemon'
p109
I301
s.