(dp0
S''
p1
I6845091
sS'Karstark'
p2
I98
sS'Victarion'
p3
I168
sS'Balon'
p4
I252
sS'Greyjoy'
p5
I240
sS'Florent'
p6
I66
sS'::'
p7
I0
sS'Baratheon'
p8
I239
sS'Dorne'
p9
I125
sS'direwolve'
p10
I57
sS'Trident'
p11
I184
sS'Frey'
p12
I456
sS'wood'
p13
I1490
sS'Tyrion'
p14
I1997
sS'Margaery'
p15
I295
sS'Tyros'
p16
I75
sS'Ramsay'
p17
I10
sS'Harrenhal'
p18
I279
sS'Craster'
p19
I182
sS'Lancel'
p20
I143
sS'Kevan'
p21
I168
sS'food'
p22
I268
sS'Varys'
p23
I384
sS'Bay'
p24
I52
sS'Walgrave'
p25
I20
sS'Sam'
p26
I1013
sS'Lys'
p27
I441
sS'Tywin'
p28
I613
sS'Myr'
p29
I374
sS'Damphair'
p30
I59
sS'Catelyn'
p31
I1099
sS'Mormont'
p32
I414
sS'Mya'
p33
I78
sS'Littlefinger'
p34
I319
sS'Ned'
p35
I950
sS'Mander'
p36
I89
sS'lion'
p37
I638
sS'Marwyn'
p38
I24
sS'Robb'
p39
I1040
sS'Jon'
p40
I2232
sS'Shaggydog'
p41
I36
sS'Obara'
p42
I29
sS'Norvos'
p43
I22
sS'sun'
p44
I607
sS'Braavos'
p45
I162
sS'Tarly'
p46
I191
sS'Lyanna'
p47
I41
sS'Umber'
p48
I55
sS'Loras'
p49
I249
sS'Ebrose'
p50
I7
sS'Bronn'
p51
I289
sS'water'
p52
I1232
sS'Winterfell'
p53
I708
sS'Rhaegar'
p54
I168
sS'Sansa'
p55
I1349
sS'Cersei'
p56
I1059
sS'Doran'
p57
I88
sS'Targaryen'
p58
I186
sS'Maron'
p59
I9
sS'Robert'
p60
I985
sS'Stark'
p61
I1139
sS'Euron'
p62
I101
sS'Drogon'
p63
I52
sS'Westeros'
p64
I144
sS'fight'
p65
I701
sS'Roose'
p66
I94
sS'Balerion'
p67
I32
sS'Lannisport'
p68
I57
sS'Asha'
p69
I162
sS'Tyene'
p70
I31
sS'Pentos'
p71
I65
sS'Bolton'
p72
I250
sS'Bran'
p73
I1361
sS'Viserion'
p74
I24
sS'Tyrell'
p75
I394
sS'Elia'
p76
I59
sS'Oberyn'
p77
I123
sS'Oldtown'
p78
I158
sS'Pyke'
p79
I137
sS'Hodor'
p80
I350
sS'Joanna'
p81
I9
sS'Quellon'
p82
I19
sS'raven'
p83
I464
sS'Jaime'
p84
I1425
sS'Luwin'
p85
I258
sS'Theon'
p86
I537
sS'Daenerys'
p87
I78
sS'Aegon'
p88
I160
sS'Volantis'
p89
I16
sS'Podrick'
p90
I140
sS'Samwell'
p91
I86
sS'Highgarden'
p92
I166
sS'read'
p93
I1105
sS'Joffrey'
p94
I802
sS'sword'
p95
I2121
sS'Rhoyne'
p96
I7
sS'Rickon'
p97
I180
sS'Ghost'
p98
I235
sS'Gulltown'
p99
I25
sS'Gendry'
p100
I243
sS'Arys'
p101
I92
sS'drink'
p102
I301
sS'Arya'
p103
I1500
sS'Viserys'
p104
I175
sS'Myrcella'
p105
I170
sS'Martell'
p106
I86
sS'Nymeria'
p107
I54
sS'Drogo'
p108
I324
sS'Rhaegal'
p109
I21
sS'Aeron'
p110
I138
sS'Tommen'
p111
I310
sS'dragon'
p112
I739
sS'Lannister'
p113
I1148
sS'Aemon'
p114
I301
s.