(dp0
S''
p1
I6845087
sS'Old_Tongue'
p2
I17
sS'Theon'
p3
I537
sS'Jade_Sea'
p4
I8
sS'Mander'
p5
I89
sS'Maester_Cressen'
p6
I29
sS'::'
p7
I0
sS'White_Harbor'
p8
I55
sS'fight'
p9
I701
sS'Drogon'
p10
I52
sS'High_Valyrian'
p11
I13
sS'Oldtown'
p12
I158
sS'Westeros'
p13
I144
sS'Common_Tongue'
p14
I53
sS'House_Stark'
p15
I41
sS'narrow_sea'
p16
I75
sS'House_Lannister'
p17
I55
sS'sun'
p18
I607
sS'jade_Sea'
p19
I7
sS'Trident'
p20
I184
sS'Many_Faced_God'
p21
I16
sS'Braavos'
p22
I162
sS'Maester_Pylos'
p23
I23
sS'House_Targaryen'
p24
I25
sS'walk'
p25
I590
sS'wood'
p26
I1490
sS'Lannisport'
p27
I57
sS'sword'
p28
I2121
sS'Rhoyne'
p29
I7
sS'Grand_Maester_Pycelle'
p30
I115
sS'Bite'
p31
I57
sS'Loras'
p32
I249
sS'House_Baratheon'
p33
I15
sS'Harrenhal'
p34
I279
sS'Gulltown'
p35
I25
sS'Maester_Colemon'
p36
I33
sS'Summer_Tongue'
p37
I7
sS'food'
p38
I268
sS'House_Arryn'
p39
I13
sS'Tyrion'
p40
I1997
sS'House_Tully'
p41
I16
sS'Maester_Luwin'
p42
I214
sS'Maester_Aemon'
p43
I185
sS'King_Landing'
p44
I323
sS'Winterfell'
p45
I708
sS"R'hllor"
p46
I38
sS'salt_sea'
p47
I14
sS'Blackwater_Bay'
p48
I15
sS'Samwell'
p49
I86
sS'Balerion'
p50
I32
sS'Viserion'
p51
I24
sS'Shipbreaker_Bay'
p52
I6
sS'Roose'
p53
I94
sS'Slaver_Bay'
p54
I8
sS'Drowned_God'
p55
I58
sS'House_Florent'
p56
I11
sS'Casterly_Rock'
p57
I184
sS'House_Frey'
p58
I13
sS'Myrcella'
p59
I170
sS'Rhaegal'
p60
I21
sS'dream'
p61
I680
sS'Storm_God'
p62
I14
s.