(dp0
S''
p1
I5969536
sS'Kingsley_Shacklebolt'
p2
I15
sS'Bill'
p3
I304
sS'scales'
p4
I23
sS'Pansy_Parkinson'
p5
I34
sS'Forbidden_Forest'
p6
I44
sS'Harry'
p7
I18677
sS'Grimmauld_Place'
p8
I53
sS'Wingardium'
p9
I6
sS'hippogriff'
p10
I70
sS'Amelia_Bones'
p11
I7
sS'veela'
p12
I38
sS'Cho_Chang'
p13
I21
sS'Colin_Creevey'
p14
I18
sS'::'
p15
I0
sS'ink'
p16
I3192
sS'Hufflepuff'
p17
I148
sS'Professor_Flitwick'
p18
I89
sS'Ginny'
p19
I770
sS'parchment'
p20
I257
sS'library'
p21
I114
sS'Professor_McGonagall'
p22
I640
sS'Fleur_Delacour'
p23
I30
sS'bathroom'
p24
I109
sS'Albus_Dumbledore'
p25
I76
sS'Cedric_Diggory'
p26
I35
sS'wand'
p27
I1872
sS'bowtruckle'
p28
I19
sS'Ernie_Macmillan'
p29
I27
sS'Shrieking_Shack'
p30
I14
sS'Lumos'
p31
I21
sS'hospital'
p32
I128
sS'wizard'
p33
I943
sS'Viktor_Krum'
p34
I39
sS'Expelliarmus'
p35
I26
sS"Dumbledore's_office"
p36
I23
sS'Hogwarts'
p37
I858
sS'Bellatrix_Lestrange'
p38
I23
sS'Neville_Longbottom'
p39
I31
sS'Ravenclaw_Tower'
p40
I7
sS'Snitch'
p41
I175
sS'Dolores_Umbridge'
p42
I20
sS'Draco_Malfoy'
p43
I103
sS'corridor'
p44
I414
sS'Imperius'
p45
I49
sS'Fred'
p46
I911
sS'Rufus_Scrimgeour'
p47
I16
sS'Mr_Crouch'
p48
I165
sS'Alastor_Moody'
p49
I7
sS'Gryffindor_Tower'
p50
I78
sS'charms'
p51
I24
sS'Lucius_Malfoy'
p52
I81
sS'fire'
p53
I582
sS'Cornelius_Fudge'
p54
I46
sS'Hermione'
p55
I5351
sS'Sectumsempra'
p56
I7
sS'Gryffindor'
p57
I677
sS'North_Tower'
p58
I10
sS'Alohomora'
p59
I9
sS'Quaffle'
p60
I87
sS'unicorn'
p61
I56
sS'Dumbledore'
p62
I3358
sS'Marcus_Flint'
p63
I9
sS'Professor_Trelawney'
p64
I216
sS'Cruciatus'
p65
I24
sS'Astronomy_Tower'
p66
I12
sS'classroom'
p67
I129
sS'Avada_Kedavra'
p68
I13
sS'river'
p69
I37
sS'Ron'
p70
I6373
sS'Ronald_Weasley'
p71
I11
sS'Hermione_Granger'
p72
I41
sS'Professor_Sprout'
p73
I72
sS'werewolf'
p74
I76
sS'Luna'
p75
I342
sS'Professor_Tofty'
p76
I11
sS'Phineas_Nigellus'
p77
I61
sS"Godric's_Hollow"
p78
I54
sS'George_Weasley'
p79
I34
sS'Luna_Lovegood'
p80
I21
sS'Draco'
p81
I237
sS'thestral'
p82
I53
sS'Dedalus_Diggle'
p83
I8
s.