(dp0
S'Fang'
p1
I112
sS'Norris'
p2
I59
sS'Hogsmeade'
p3
I150
sS'Dolores'
p4
I41
sS'Cho'
p5
I281
sS'paper'
p6
I244
sS'::'
p7
I0
sS'earth'
p8
I139
sS'chair'
p9
I432
sS'parchment'
p10
I257
sS'Ravenclaw'
p11
I173
sS'broomstick'
p12
I138
sS'Angelina'
p13
I122
sS'stairs'
p14
I441
sS'McGonagall'
p15
I734
sS'cloak'
p16
I312
sS'Fred'
p17
I911
sS'Marietta'
p18
I39
sS'Snitch'
p19
I175
sS'Phineas'
p20
I83
sS'Winky'
p21
I160
sS'James'
p22
I185
sS'Michael'
p23
I26
sS'Pansy'
p24
I60
sS'courage'
p25
I48
sS'ambition'
p26
I24
sS'bravery'
p27
I12
sS'Penelope'
p28
I10
sS'Demelza'
p29
I16
sS'Draco'
p30
I237
sS'George'
p31
I777
sS'Rubeus'
p32
I11
sS'intelligence'
p33
I7
sS'Tom'
p34
I135
sS'spider'
p35
I136
sS'Fleur'
p36
I246
sS'air'
p37
I2937
sS'quill'
p38
I164
sS'Barty'
p39
I52
sS'troll'
p40
I210
sS'phoenix'
p41
I59
sS'Viktor'
p42
I60
sS'Kreacher'
p43
I310
sS'Susan'
p44
I10
sS'Luna'
p45
I342
sS'Filch'
p46
I280
sS'Terry'
p47
I13
sS'Severus'
p48
I147
sS'bird'
p49
I88
sS'Neville'
p50
I775
sS'Norbert'
p51
I37
sS'centaur'
p52
I98
sS'Lucius'
p53
I143
sS'water'
p54
I361
sS'Hokey'
p55
I19
sS'Arthur'
p56
I150
sS'witch'
p57
I455
sS'Aragog'
p58
I49
sS'Chang'
p59
I32
sS'Azkaban'
p60
I178
sS'Padma'
p61
I22
sS'Expelliarmus'
p62
I26
sS'Bludger'
p63
I119
sS'Hagrid'
p64
I2038
sS'Ron'
p65
I6373
sS'Igor'
p66
I7
sS'Fluffy'
p67
I27
sS'Lavender'
p68
I136
sS'Scabbers'
p69
I131
sS'Slytherin'
p70
I473
sS'Cornelius'
p71
I78
sS'Pomfrey'
p72
I156
sS'wizard'
p73
I943
sS'Parvati'
p74
I130
sS'scales'
p75
I23
sS'cauldron'
p76
I134
sS'patience'
p77
I18
sS'wit'
p78
I7686
sS'Cormac'
p79
I13
sS'Hufflepuff'
p80
I148
sS'Lily'
p81
I123
sS'Sirius'
p82
I1124
sS'Rita'
p83
I158
sS'Minerva'
p84
I44
sS'horse'
p85
I97
sS'Crouch'
p86
I335
sS'wand'
p87
I1872
sS'Lovegood'
p88
I73
sS'Anthony'
p89
I8
sS'Hogwarts'
p90
I858
sS'Cedric'
p91
I316
sS'Nymphadora'
p92
I12
sS'Justin'
p93
I48
sS'fire'
p94
I582
sS'Narcissa'
p95
I76
sS'Dumbledore'
p96
I3358
sS'Horace'
p97
I26
sS'wisdom'
p98
I8
sS'Roger'
p99
I20
sS'Quaffle'
p100
I87
sS'Harry'
p101
I18677
sS'goblin'
p102
I221
sS'Seamus'
p103
I180
sS'cunning'
p104
I11
sS'anxiety'
p105
I14
sS'Trelawney'
p106
I250
sS'ryffindor'
p107
I677
sS'Durmstrang'
p108
I66
sS'cat'
p109
I713
sS'Colin'
p110
I72
sS'Regulus'
p111
I53
sS'Peter'
p112
I54
sS'Ernie'
p113
I100
sS'Remus'
p114
I59
sS'veela'
p115
I38
sS'rat'
p116
I2023
sS'ink'
p117
I3192
sS'Fudge'
p118
I469
sS'Albus'
p119
I181
sS'Fawkes'
p120
I64
sS'Gryffindor'
p121
I677
sS'daring'
p122
I31
sS'Hannah'
p123
I26
sS'Ginny'
p124
I770
sS'Alicia'
p125
I53
sS'Molly'
p126
I83
sS'Blaise'
p127
I6
sS'Millicent'
p128
I17
sS'Snape'
p129
I1822
sS'Marcus'
p130
I12
sS'bottle'
p131
I206
sS'charms'
p132
I24
sS'loyalty'
p133
I14
sS'Peeves'
p134
I159
sS'Hermione'
p135
I5351
sS'unicorn'
p136
I56
sS'wind'
p137
I804
sS'Gregory'
p138
I6
sS'Flitwick'
p139
I137
sS'Lee'
p140
I97
sS'Bellatrix'
p141
I199
sS'Zacharias'
p142
I35
sS'Hedwig'
p143
I207
sS'dog'
p144
I175
sS'dragon'
p145
I240
sS'Dobby'
p146
I466
sS'Buckbeak'
p147
I128
sS'Myrtle'
p148
I117
sS'Ollivander'
p149
I118
s.