(dp0
S'Bellatrix'
p1
(lp2
(S'Voldemort'
p3
I12
tp4
a(S'Narcissa Malfoy'
p5
I9
tp6
asS'Dumbledore'
p7
(lp8
(S'Harry'
p9
I14
tp10
a(S'Severus'
p11
I13
tp12
asS'Cho'
p13
(lp14
(S'Harry'
p15
I14
tp16
a(S'Hermione'
p17
I5
tp18
asS'Ron'
p19
(lp20
(S'Harry'
p21
I14
tp22
a(S'Hermione'
p23
I14
tp24
asS'James'
p25
(lp26
(S'Lily'
p27
I12
tp28
a(S'Harry'
p29
I10
tp30
asS'George'
p31
(lp32
(S'Fred'
p33
I14
tp34
a(S'Ron'
p35
I12
tp36
asS'Bill'
p37
(lp38
(S'Fleur'
p39
I12
tp40
a(S'George'
p41
I5
tp42
asS'Voldemort'
p43
(lp44
(S'Harry'
p45
I11
tp46
a(S'Bellatrix'
p47
I7
tp48
asS'Fleur'
p49
(lp50
(S'Bill'
p51
I14
tp52
a(S'Harry'
p53
I9
tp54
asS'Percy'
p55
(lp56
(S'Fred'
p57
I8
tp58
a(S'Ron'
p59
I8
tp60
asS'Luna'
p61
(lp62
(S'Harry'
p63
I12
tp64
a(S'Ginny'
p65
I8
tp66
asS'Angelina'
p67
(lp68
(S'George'
p69
I13
tp70
a(S'Fred'
p71
I10
tp72
asS'Hermione'
p73
(lp74
(S'Harry'
p75
I15
tp76
a(S'Ron'
p77
I15
tp78
asS'Lily'
p79
(lp80
(S'Harry'
p81
I13
tp82
a(S'James'
p83
I13
tp84
asS'Harry'
p85
(lp86
(S'Ron'
p87
I13
tp88
a(S'Hermione'
p89
I9
tp90
asS'Severus'
p91
(lp92
(S'Dumbledore'
p93
I9
tp94
a(S'Lily'
p95
I7
tp96
asS'Fred'
p97
(lp98
(S'George'
p99
I13
tp100
a(S'Ron'
p101
I10
tp102
asS'Ginny'
p103
(lp104
(S'Harry'
p105
I14
tp106
a(S'Ron'
p107
I11
tp108
asS'Sirius'
p109
(lp110
(S'Harry'
p111
I14
tp112
a(S'James'
p113
I12
tp114
asS'Lucius'
p115
(lp116
(S'Voldemort'
p117
I13
tp118
a(S'Bellatrix'
p119
I11
tp120
as.